target datalayout = "e-m:e-p270:32:32-p271:32:32-p272:64:64-i64:64-i128:128-f80:128-n8:16:32:64-S128"
target triple = "x86_64-pc-linux-gnu"

%"class.std::optional" = type { %"struct.std::_Optional_base" }
%"struct.std::_Optional_base" = type { %"struct.std::_Optional_payload" }
%"struct.std::_Optional_payload" = type { %"struct.std::_Optional_payload_base.base", [3 x i8] }
%"struct.std::_Optional_payload_base.base" = type <{ %"union.std::_Optional_payload_base<unsigned int>::_Storage", i8 }>
%"union.std::_Optional_payload_base<unsigned int>::_Storage" = type { i32 }
%"struct.clang::interp::Descriptor" = type { %"class.llvm::PointerUnion", i32, i32, i32, i32, ptr, ptr, %"class.std::optional.2", i8, i8, i8, i8, i8, ptr, ptr, ptr }
%"class.llvm::PointerUnion" = type { %"class.llvm::pointer_union_detail::PointerUnionMembers" }
%"class.llvm::pointer_union_detail::PointerUnionMembers" = type { %"class.llvm::pointer_union_detail::PointerUnionMembers.0" }
%"class.llvm::pointer_union_detail::PointerUnionMembers.0" = type { %"class.llvm::pointer_union_detail::PointerUnionMembers.1" }
%"class.llvm::pointer_union_detail::PointerUnionMembers.1" = type { %"class.llvm::PointerIntPair" }
%"class.llvm::PointerIntPair" = type { %"struct.llvm::detail::PunnedPointer" }
%"struct.llvm::detail::PunnedPointer" = type { [8 x i8] }
%"class.std::optional.2" = type { %"struct.std::_Optional_base.3" }
%"struct.std::_Optional_base.3" = type { %"struct.std::_Optional_payload.5" }
%"struct.std::_Optional_payload.5" = type { %"struct.std::_Optional_payload_base.base.7", [3 x i8] }
%"struct.std::_Optional_payload_base.base.7" = type <{ %"union.std::_Optional_payload_base<clang::interp::PrimType>::_Storage", i8 }>
%"union.std::_Optional_payload_base<clang::interp::PrimType>::_Storage" = type { i32 }
%"struct.std::_Optional_payload_base" = type <{ %"union.std::_Optional_payload_base<unsigned int>::_Storage", i8, [3 x i8] }>
%"struct.std::_Optional_payload_base.6" = type <{ %"union.std::_Optional_payload_base<clang::interp::PrimType>::_Storage", i8, [3 x i8] }>

; Function Attrs: mustprogress nounwind uwtable
define linkonce_odr hidden void @_ZNSt22_Optional_payload_baseIN5clang6interp8PrimTypeEE8_StorageIS2_Lb1EEC2Ev(ptr noundef nonnull align 4 dereferenceable(4) %0) unnamed_addr #0 comdat align 2 {
  %2 = alloca ptr, align 8
  store ptr %0, ptr %2, align 8
  ret void
}

; Function Attrs: mustprogress nounwind uwtable
define linkonce_odr hidden void @_ZNSt22_Optional_payload_baseIN5clang6interp8PrimTypeEEC2Ev(ptr noundef nonnull align 4 dereferenceable(5) %0) unnamed_addr #0 comdat align 2 {
  %2 = alloca ptr, align 8
  store ptr %0, ptr %2, align 8
  %3 = load ptr, ptr %2, align 8
  %4 = getelementptr inbounds nuw %"struct.std::_Optional_payload_base.6", ptr %3, i32 0, i32 0
  call void @_ZNSt22_Optional_payload_baseIN5clang6interp8PrimTypeEE8_StorageIS2_Lb1EEC2Ev(ptr noundef nonnull align 4 dereferenceable(4) %4) #11
  %5 = getelementptr inbounds nuw %"struct.std::_Optional_payload_base.6", ptr %3, i32 0, i32 1
  store i8 0, ptr %5, align 4
  ret void
}

; Function Attrs: mustprogress nounwind uwtable
define linkonce_odr hidden void @_ZNSt17_Optional_payloadIN5clang6interp8PrimTypeELb1ELb1ELb1EEC2Ev(ptr noundef nonnull align 4 dereferenceable(5) %0) unnamed_addr #0 comdat align 2 {
  %2 = alloca ptr, align 8
  store ptr %0, ptr %2, align 8
  %3 = load ptr, ptr %2, align 8
  call void @_ZNSt22_Optional_payload_baseIN5clang6interp8PrimTypeEEC2Ev(ptr noundef nonnull align 4 dereferenceable(5) %3) #11
  ret void
}

; Function Attrs: mustprogress nounwind uwtable
define linkonce_odr hidden noundef nonnull align 4 dereferenceable(4) ptr @_ZNKSt22_Optional_payload_baseIjE6_M_getEv(ptr noundef nonnull align 4 dereferenceable(5) %0) #0 comdat align 2 {
  %2 = alloca ptr, align 8
  store ptr %0, ptr %2, align 8
  %3 = load ptr, ptr %2, align 8
  %4 = getelementptr inbounds nuw %"struct.std::_Optional_payload_base", ptr %3, i32 0, i32 0
  ret ptr %4
}

; Function Attrs: mustprogress nounwind uwtable
define linkonce_odr hidden void @_ZNSt14_Optional_baseIN5clang6interp8PrimTypeELb1ELb1EEC2Ev(ptr noundef nonnull align 4 dereferenceable(8) %0) unnamed_addr #0 comdat align 2 {
  %2 = alloca ptr, align 8
  store ptr %0, ptr %2, align 8
  %3 = load ptr, ptr %2, align 8
  %4 = getelementptr inbounds nuw %"struct.std::_Optional_base.3", ptr %3, i32 0, i32 0
  call void @_ZNSt17_Optional_payloadIN5clang6interp8PrimTypeELb1ELb1ELb1EEC2Ev(ptr noundef nonnull align 4 dereferenceable(5) %4) #11
  ret void
}

; Function Attrs: mustprogress nounwind uwtable
define linkonce_odr hidden noundef nonnull align 4 dereferenceable(4) ptr @_ZNKSt19_Optional_base_implIjSt14_Optional_baseIjLb1ELb1EEE6_M_getEv(ptr noundef nonnull align 1 dereferenceable(1) %0) #0 comdat align 2 {
  %2 = alloca ptr, align 8
  store ptr %0, ptr %2, align 8
  %3 = load ptr, ptr %2, align 8
  br label %4

4:                                                ; preds = %1
  br label %5

5:                                                ; preds = %4
  %6 = getelementptr inbounds nuw %"struct.std::_Optional_base", ptr %3, i32 0, i32 0
  %7 = call noundef nonnull align 4 dereferenceable(4) ptr @_ZNKSt22_Optional_payload_baseIjE6_M_getEv(ptr noundef nonnull align 4 dereferenceable(5) %6) #11
  ret ptr %7
}

; Function Attrs: mustprogress nounwind uwtable
define linkonce_odr hidden noundef zeroext i1 @_ZNKSt19_Optional_base_implIjSt14_Optional_baseIjLb1ELb1EEE13_M_is_engagedEv(ptr noundef nonnull align 1 dereferenceable(1) %0) #0 comdat align 2 {
  %2 = alloca ptr, align 8
  store ptr %0, ptr %2, align 8
  %3 = load ptr, ptr %2, align 8
  %4 = getelementptr inbounds nuw %"struct.std::_Optional_base", ptr %3, i32 0, i32 0
  %5 = getelementptr inbounds nuw %"struct.std::_Optional_payload_base", ptr %4, i32 0, i32 1
  %6 = load i8, ptr %5, align 4
  %7 = trunc i8 %6 to i1
  ret i1 %7
}

; Function Attrs: mustprogress nounwind uwtable
define linkonce_odr hidden void @_ZNSt8optionalIN5clang6interp8PrimTypeEEC2ESt9nullopt_t(ptr noundef nonnull align 4 dereferenceable(8) %0) unnamed_addr #0 comdat align 2 {
  %2 = alloca ptr, align 8
  store ptr %0, ptr %2, align 8
  %3 = load ptr, ptr %2, align 8
  call void @_ZNSt14_Optional_baseIN5clang6interp8PrimTypeELb1ELb1EEC2Ev(ptr noundef nonnull align 4 dereferenceable(8) %3) #11
  ret void
}

; Function Attrs: mustprogress nounwind uwtable
define linkonce_odr noundef nonnull align 8 dereferenceable(8) ptr @_ZSt3maxImERKT_S2_S2_(ptr noundef nonnull align 8 dereferenceable(8) %0, ptr noundef nonnull align 8 dereferenceable(8) %1) #0 comdat {
  %3 = alloca ptr, align 8
  %4 = alloca ptr, align 8
  %5 = alloca ptr, align 8
  store ptr %0, ptr %4, align 8
  store ptr %1, ptr %5, align 8
  %6 = load ptr, ptr %4, align 8
  %7 = load i64, ptr %6, align 8
  %8 = load ptr, ptr %5, align 8
  %9 = load i64, ptr %8, align 8
  %10 = icmp ult i64 %7, %9
  br i1 %10, label %11, label %13

11:                                               ; preds = %2
  %12 = load ptr, ptr %5, align 8
  store ptr %12, ptr %3, align 8
  br label %15

13:                                               ; preds = %2
  %14 = load ptr, ptr %4, align 8
  store ptr %14, ptr %3, align 8
  br label %15

15:                                               ; preds = %13, %11
  %16 = load ptr, ptr %3, align 8
  ret ptr %16
}

; Function Attrs: mustprogress nounwind uwtable
define linkonce_odr hidden noundef i32 @_ZNKRSt8optionalIjE8value_orIiEEjOT_(ptr noundef nonnull align 4 dereferenceable(8) %0, ptr noundef nonnull align 4 dereferenceable(4) %1) #0 comdat align 2 {
  %3 = alloca i32, align 4
  %4 = alloca ptr, align 8
  %5 = alloca ptr, align 8
  store ptr %0, ptr %4, align 8
  store ptr %1, ptr %5, align 8
  %6 = load ptr, ptr %4, align 8
  %7 = call noundef zeroext i1 @_ZNKSt19_Optional_base_implIjSt14_Optional_baseIjLb1ELb1EEE13_M_is_engagedEv(ptr noundef nonnull align 1 dereferenceable(1) %6) #11
  br i1 %7, label %8, label %11

8:                                                ; preds = %2
  %9 = call noundef nonnull align 4 dereferenceable(4) ptr @_ZNKSt19_Optional_base_implIjSt14_Optional_baseIjLb1ELb1EEE6_M_getEv(ptr noundef nonnull align 1 dereferenceable(1) %6) #11
  %10 = load i32, ptr %9, align 4
  store i32 %10, ptr %3, align 4
  br label %14

11:                                               ; preds = %2
  %12 = load ptr, ptr %5, align 8
  %13 = load i32, ptr %12, align 4
  store i32 %13, ptr %3, align 4
  br label %14

14:                                               ; preds = %11, %8
  %15 = load i32, ptr %3, align 4
  ret i32 %15
}

; Function Attrs: mustprogress nounwind uwtable
define linkonce_odr hidden noundef i32 @_ZNK5clang6interp10Descriptor12getAllocSizeEv(ptr noundef nonnull align 8 dereferenceable(80) %0) #0 comdat align 2 {
  %2 = alloca ptr, align 8
  store ptr %0, ptr %2, align 8
  %3 = load ptr, ptr %2, align 8
  %4 = getelementptr inbounds nuw %"struct.clang::interp::Descriptor", ptr %3, i32 0, i32 4
  %5 = load i32, ptr %4, align 4
  ret i32 %5
}

; Function Attrs: mustprogress nounwind uwtable
define dso_local void @_ZN5clang6interp10DescriptorC2ERKN4llvm12PointerUnionIJPKNS_4DeclEPKNS_4ExprEEEEPKS1_St8optionalIjEjbbb(ptr noundef nonnull align 8 dereferenceable(80) %0, ptr noundef nonnull align 8 dereferenceable(8) %1, ptr noundef %2, i64 %3, i32 noundef %4, i1 noundef zeroext %5, i1 noundef zeroext %6, i1 noundef zeroext %7) unnamed_addr #0 align 2 {
  %9 = alloca %"class.std::optional", align 4
  %10 = alloca ptr, align 8
  %11 = alloca ptr, align 8
  %12 = alloca ptr, align 8
  %13 = alloca i32, align 4
  %14 = alloca i8, align 1
  %15 = alloca i8, align 1
  %16 = alloca i8, align 1
  %17 = alloca i32, align 4
  %18 = alloca i64, align 8
  %19 = alloca i64, align 8
  %20 = getelementptr inbounds nuw %"class.std::optional", ptr %9, i32 0, i32 0
  %21 = getelementptr inbounds nuw %"struct.std::_Optional_base", ptr %20, i32 0, i32 0
  store i64 %3, ptr %21, align 4
  store ptr %0, ptr %10, align 8
  store ptr %1, ptr %11, align 8
  store ptr %2, ptr %12, align 8
  store i32 %4, ptr %13, align 4
  %22 = zext i1 %5 to i8
  store i8 %22, ptr %14, align 1
  %23 = zext i1 %6 to i8
  store i8 %23, ptr %15, align 1
  %24 = zext i1 %7 to i8
  store i8 %24, ptr %16, align 1
  %25 = load ptr, ptr %10, align 8
  %26 = getelementptr inbounds nuw %"struct.clang::interp::Descriptor", ptr %25, i32 0, i32 0
  %27 = load ptr, ptr %11, align 8
  call void @llvm.memcpy.p0.p0.i64(ptr align 8 %26, ptr align 8 %27, i64 8, i1 false)
  %28 = getelementptr inbounds nuw %"struct.clang::interp::Descriptor", ptr %25, i32 0, i32 1
  %29 = load ptr, ptr %12, align 8
  %30 = call noundef i32 @_ZNK5clang6interp10Descriptor12getAllocSizeEv(ptr noundef nonnull align 8 dereferenceable(80) %29)
  %31 = zext i32 %30 to i64
  %32 = add i64 %31, 16
  %33 = trunc i64 %32 to i32
  store i32 %33, ptr %28, align 8
  %34 = getelementptr inbounds nuw %"struct.clang::interp::Descriptor", ptr %25, i32 0, i32 2
  %35 = getelementptr inbounds nuw %"struct.clang::interp::Descriptor", ptr %25, i32 0, i32 1
  %36 = load i32, ptr %35, align 8
  %37 = load i32, ptr %13, align 4
  %38 = mul i32 %36, %37
  store i32 %38, ptr %34, align 4
  %39 = getelementptr inbounds nuw %"struct.clang::interp::Descriptor", ptr %25, i32 0, i32 3
  store i32 0, ptr %17, align 4
  %40 = call noundef i32 @_ZNKRSt8optionalIjE8value_orIiEEjOT_(ptr noundef nonnull align 4 dereferenceable(8) %9, ptr noundef nonnull align 4 dereferenceable(4) %17)
  store i32 %40, ptr %39, align 8
  %41 = getelementptr inbounds nuw %"struct.clang::interp::Descriptor", ptr %25, i32 0, i32 4
  store i64 8, ptr %18, align 8
  %42 = getelementptr inbounds nuw %"struct.clang::interp::Descriptor", ptr %25, i32 0, i32 2
  %43 = load i32, ptr %42, align 4
  %44 = zext i32 %43 to i64
  store i64 %44, ptr %19, align 8
  %45 = call noundef nonnull align 8 dereferenceable(8) ptr @_ZSt3maxImERKT_S2_S2_(ptr noundef nonnull align 8 dereferenceable(8) %18, ptr noundef nonnull align 8 dereferenceable(8) %19)
  %46 = load i64, ptr %45, align 8
  %47 = getelementptr inbounds nuw %"struct.clang::interp::Descriptor", ptr %25, i32 0, i32 3
  %48 = load i32, ptr %47, align 8
  %49 = zext i32 %48 to i64
  %50 = add i64 %46, %49
  %51 = trunc i64 %50 to i32
  store i32 %51, ptr %41, align 4
  %52 = getelementptr inbounds nuw %"struct.clang::interp::Descriptor", ptr %25, i32 0, i32 5
  store ptr null, ptr %52, align 8
  %53 = getelementptr inbounds nuw %"struct.clang::interp::Descriptor", ptr %25, i32 0, i32 6
  %54 = load ptr, ptr %12, align 8
  store ptr %54, ptr %53, align 8
  %55 = getelementptr inbounds nuw %"struct.clang::interp::Descriptor", ptr %25, i32 0, i32 7
  call void @_ZNSt8optionalIN5clang6interp8PrimTypeEEC2ESt9nullopt_t(ptr noundef nonnull align 4 dereferenceable(8) %55) #11
  %56 = getelementptr inbounds nuw %"struct.clang::interp::Descriptor", ptr %25, i32 0, i32 8
  %57 = load i8, ptr %14, align 1
  %58 = trunc i8 %57 to i1
  %59 = zext i1 %58 to i8
  store i8 %59, ptr %56, align 8
  %60 = getelementptr inbounds nuw %"struct.clang::interp::Descriptor", ptr %25, i32 0, i32 9
  %61 = load i8, ptr %16, align 1
  %62 = trunc i8 %61 to i1
  %63 = zext i1 %62 to i8
  store i8 %63, ptr %60, align 1
  %64 = getelementptr inbounds nuw %"struct.clang::interp::Descriptor", ptr %25, i32 0, i32 10
  %65 = load i8, ptr %15, align 1
  %66 = trunc i8 %65 to i1
  %67 = zext i1 %66 to i8
  store i8 %67, ptr %64, align 2
  %68 = getelementptr inbounds nuw %"struct.clang::interp::Descriptor", ptr %25, i32 0, i32 11
  store i8 1, ptr %68, align 1
  %69 = getelementptr inbounds nuw %"struct.clang::interp::Descriptor", ptr %25, i32 0, i32 12
  store i8 0, ptr %69, align 4
  %70 = getelementptr inbounds nuw %"struct.clang::interp::Descriptor", ptr %25, i32 0, i32 13
  store ptr @_ZL13ctorArrayDescPN5clang6interp5BlockEPSt4bytebbbbPKNS0_10DescriptorE, ptr %70, align 8
  %71 = getelementptr inbounds nuw %"struct.clang::interp::Descriptor", ptr %25, i32 0, i32 14
  store ptr @_ZL13dtorArrayDescPN5clang6interp5BlockEPSt4bytePKNS0_10DescriptorE, ptr %71, align 8
  %72 = getelementptr inbounds nuw %"struct.clang::interp::Descriptor", ptr %25, i32 0, i32 15
  store ptr @_ZL13moveArrayDescPN5clang6interp5BlockEPSt4byteS4_PKNS0_10DescriptorE, ptr %72, align 8
  ret void
}