; Function Attrs: mustprogress nofree norecurse nosync nounwind willreturn memory(argmem: readwrite) uwtable
define dso_local void @_ZN5clang6interp10DescriptorC2ERKN4llvm12PointerUnionIJPKNS_4DeclEPKNS_4ExprEEEEPKS1_St8optionalIjEjbbb(ptr nocapture noundef nonnull writeonly align 8 dereferenceable(80) %0, ptr nocapture noundef nonnull readonly align 8 dereferenceable(8) %1, ptr noundef %2, i64 %3, i32 noundef %4, i1 noundef zeroext %5, i1 noundef zeroext %6, i1 noundef zeroext %7) unnamed_addr #3 align 2 {
  %.sroa.0.0.extract.trunc = trunc i64 %3 to i32
  %9 = zext i1 %5 to i8
  %10 = zext i1 %6 to i8
  %11 = zext i1 %7 to i8
  %12 = load i64, ptr %1, align 8
  store i64 %12, ptr %0, align 8
  %13 = getelementptr inbounds nuw i8, ptr %0, i64 8
  %14 = getelementptr inbounds nuw i8, ptr %2, i64 20
  %15 = load i32, ptr %14, align 4
  %16 = add i32 %15, 16
  store i32 %16, ptr %13, align 8
  %17 = getelementptr inbounds nuw i8, ptr %0, i64 12
  %18 = mul i32 %16, %4
  store i32 %18, ptr %17, align 4
  %19 = getelementptr inbounds nuw i8, ptr %0, i64 16
  %20 = and i64 %3, 4294967296
  %.not = icmp eq i64 %20, 0
  %.0.i = select i1 %.not, i32 0, i32 %.sroa.0.0.extract.trunc
  store i32 %.0.i, ptr %19, align 8
  %21 = getelementptr inbounds nuw i8, ptr %0, i64 20
  %22 = tail call i32 @llvm.umax.i32(i32 %18, i32 8)
  %23 = add i32 %22, %.0.i
  store i32 %23, ptr %21, align 4
  %24 = getelementptr inbounds nuw i8, ptr %0, i64 24
  store ptr null, ptr %24, align 8
  %25 = getelementptr inbounds nuw i8, ptr %0, i64 32
  store ptr %2, ptr %25, align 8
  %26 = getelementptr inbounds i8, ptr %0, i64 44
  store i8 0, ptr %26, align 4
  %27 = getelementptr inbounds nuw i8, ptr %0, i64 48
  store i8 %9, ptr %27, align 8
  %28 = getelementptr inbounds nuw i8, ptr %0, i64 49
  store i8 %11, ptr %28, align 1
  %29 = getelementptr inbounds nuw i8, ptr %0, i64 50
  store i8 %10, ptr %29, align 2
  %30 = getelementptr inbounds nuw i8, ptr %0, i64 51
  store i8 1, ptr %30, align 1
  %31 = getelementptr inbounds nuw i8, ptr %0, i64 52
  store i8 0, ptr %31, align 4
  %32 = getelementptr inbounds nuw i8, ptr %0, i64 56
  store ptr @_ZL13ctorArrayDescPN5clang6interp5BlockEPSt4bytebbbbPKNS0_10DescriptorE, ptr %32, align 8
  %33 = getelementptr inbounds nuw i8, ptr %0, i64 64
  store ptr @_ZL13dtorArrayDescPN5clang6interp5BlockEPSt4bytePKNS0_10DescriptorE, ptr %33, align 8
  %34 = getelementptr inbounds nuw i8, ptr %0, i64 72
  store ptr @_ZL13moveArrayDescPN5clang6interp5BlockEPSt4byteS4_PKNS0_10DescriptorE, ptr %34, align 8
  ret void
}